; ModuleID = '52/4891.c'
source_filename = "52/4891.c"
target datalayout = "e-m:e-p270:32:32-p271:32:32-p272:64:64-i64:64-f80:128-n8:16:32:64-S128"
target triple = "x86_64-pc-linux-gnu"

@.str = private unnamed_addr constant [5 x i8] c"%d%d\00", align 1
@.str.1 = private unnamed_addr constant [3 x i8] c"%d\00", align 1
@.str.2 = private unnamed_addr constant [2 x i8] c" \00", align 1

; Function Attrs: noinline nounwind uwtable
define dso_local i32 @main() #0 {
  %1 = alloca i32, align 4
  %2 = alloca i32, align 4
  %3 = alloca i32, align 4
  %4 = alloca i32, align 4
  %5 = alloca [101 x i32], align 16
  store i32 0, i32* %1, align 4
  %6 = call i32 (i8*, ...) @__isoc99_scanf(i8* getelementptr inbounds ([5 x i8], [5 x i8]* @.str, i64 0, i64 0), i32* %2, i32* %3)
  %7 = load i32, i32* %3, align 4
  store i32 %7, i32* %4, align 4
  br label %8

8:                                                ; preds = %19, %0
  %9 = load i32, i32* %4, align 4
  %10 = load i32, i32* %2, align 4
  %11 = load i32, i32* %3, align 4
  %12 = add nsw i32 %10, %11
  %13 = icmp slt i32 %9, %12
  br i1 %13, label %14, label %22

14:                                               ; preds = %8
  %15 = load i32, i32* %4, align 4
  %16 = sext i32 %15 to i64
  %17 = getelementptr inbounds [101 x i32], [101 x i32]* %5, i64 0, i64 %16
  %18 = call i32 (i8*, ...) @__isoc99_scanf(i8* getelementptr inbounds ([3 x i8], [3 x i8]* @.str.1, i64 0, i64 0), i32* %17)
  br label %19

19:                                               ; preds = %14
  %20 = load i32, i32* %4, align 4
  %21 = add nsw i32 %20, 1
  store i32 %21, i32* %4, align 4
  br label %8

22:                                               ; preds = %8
  store i32 0, i32* %4, align 4
  br label %23

23:                                               ; preds = %36, %22
  %24 = load i32, i32* %4, align 4
  %25 = load i32, i32* %3, align 4
  %26 = icmp slt i32 %24, %25
  br i1 %26, label %27, label %39

27:                                               ; preds = %23
  %28 = load i32, i32* %2, align 4
  %29 = add nsw i32 %28, 1
  store i32 %29, i32* %2, align 4
  %30 = sext i32 %28 to i64
  %31 = getelementptr inbounds [101 x i32], [101 x i32]* %5, i64 0, i64 %30
  %32 = load i32, i32* %31, align 4
  %33 = load i32, i32* %4, align 4
  %34 = sext i32 %33 to i64
  %35 = getelementptr inbounds [101 x i32], [101 x i32]* %5, i64 0, i64 %34
  store i32 %32, i32* %35, align 4
  br label %36

36:                                               ; preds = %27
  %37 = load i32, i32* %4, align 4
  %38 = add nsw i32 %37, 1
  store i32 %38, i32* %4, align 4
  br label %23

39:                                               ; preds = %23
  %40 = load i32, i32* %2, align 4
  store i32 %40, i32* %4, align 4
  br label %41

41:                                               ; preds = %51, %39
  %42 = load i32, i32* %4, align 4
  %43 = load i32, i32* %2, align 4
  %44 = load i32, i32* %3, align 4
  %45 = add nsw i32 %43, %44
  %46 = icmp slt i32 %42, %45
  br i1 %46, label %47, label %54

47:                                               ; preds = %41
  %48 = load i32, i32* %4, align 4
  %49 = sext i32 %48 to i64
  %50 = getelementptr inbounds [101 x i32], [101 x i32]* %5, i64 0, i64 %49
  store i32 0, i32* %50, align 4
  br label %51

51:                                               ; preds = %47
  %52 = load i32, i32* %4, align 4
  %53 = add nsw i32 %52, 1
  store i32 %53, i32* %4, align 4
  br label %41

54:                                               ; preds = %41
  store i32 0, i32* %4, align 4
  br label %55

55:                                               ; preds = %76, %54
  %56 = load i32, i32* %4, align 4
  %57 = load i32, i32* %2, align 4
  %58 = load i32, i32* %3, align 4
  %59 = sub nsw i32 %57, %58
  %60 = icmp slt i32 %56, %59
  br i1 %60, label %61, label %79

61:                                               ; preds = %55
  %62 = load i32, i32* %4, align 4
  %63 = sext i32 %62 to i64
  %64 = getelementptr inbounds [101 x i32], [101 x i32]* %5, i64 0, i64 %63
  %65 = load i32, i32* %64, align 4
  %66 = call i32 (i8*, ...) @printf(i8* getelementptr inbounds ([3 x i8], [3 x i8]* @.str.1, i64 0, i64 0), i32 %65)
  %67 = load i32, i32* %4, align 4
  %68 = load i32, i32* %2, align 4
  %69 = load i32, i32* %3, align 4
  %70 = sub nsw i32 %68, %69
  %71 = sub nsw i32 %70, 1
  %72 = icmp ne i32 %67, %71
  br i1 %72, label %73, label %75

73:                                               ; preds = %61
  %74 = call i32 (i8*, ...) @printf(i8* getelementptr inbounds ([2 x i8], [2 x i8]* @.str.2, i64 0, i64 0))
  br label %75

75:                                               ; preds = %73, %61
  br label %76

76:                                               ; preds = %75
  %77 = load i32, i32* %4, align 4
  %78 = add nsw i32 %77, 1
  store i32 %78, i32* %4, align 4
  br label %55

79:                                               ; preds = %55
  ret i32 0
}

declare dso_local i32 @__isoc99_scanf(i8*, ...) #1

declare dso_local i32 @printf(i8*, ...) #1


!llvm.module.flags = !{!0}
!llvm.ident = !{!1}

!0 = !{i32 1, !"wchar_size", i32 4}
!1 = !{!"clang version 10.0.0-4ubuntu1 "}
